target datalayout = "e-m:e-p270:32:32-p271:32:32-p272:64:64-i64:64-i128:128-f80:128-n8:16:32:64-S128"
target triple = "x86_64-pc-linux-gnu"

%struct.cli_ctx_tag = type { ptr, ptr, ptr, ptr, ptr, ptr, ptr, i64, ptr, i32, i32, ptr, i32, i32, ptr, [16 x i8], ptr, ptr, ptr, ptr, ptr, ptr, %struct.timeval, i8, i8 }
%struct.timeval = type { i64, i64 }
%struct.recursion_level_tag = type { i32, i64, ptr, i32, i32, i32, %struct.image_fuzzy_hash, i8 }
%struct.image_fuzzy_hash = type { [8 x i8] }
%struct.cl_fmap = type { ptr, ptr, ptr, i64, i64, i64, i64, i8, i8, i8, i64, i64, i64, i64, ptr, ptr, ptr, ptr, ptr, ptr, ptr, i8, [16 x i8], i8, [20 x i8], i8, [32 x i8], ptr, ptr }
%struct.cl_scan_options = type { i32, i32, i32, i32, i32 }

@.str.280 = private unnamed_addr constant [15 x i8] c"ImageFuzzyHash\00", align 1
@.str.281 = private unnamed_addr constant [47 x i8] c"Failed to allocate ImageFuzzyHash JSON object\0A\00", align 1
@.str.282 = private unnamed_addr constant [49 x i8] c"Failed to calculate image fuzzy hash for %s: %s\0A\00", align 1
@.str.283 = private unnamed_addr constant [6 x i8] c"Error\00", align 1
@.str.284 = private unnamed_addr constant [33 x i8] c"%02x%02x%02x%02x%02x%02x%02x%02x\00", align 1
@.str.285 = private unnamed_addr constant [5 x i8] c"Hash\00", align 1

; Function Attrs: nounwind uwtable
define internal ptr @fmap_need_off(ptr noundef %0, i64 noundef %1, i64 noundef %2) #0 {
  %4 = alloca ptr, align 8
  %5 = alloca i64, align 8
  %6 = alloca i64, align 8
  store ptr %0, ptr %4, align 8
  store i64 %1, ptr %5, align 8
  store i64 %2, ptr %6, align 8
  %7 = load ptr, ptr %4, align 8
  %8 = getelementptr inbounds %struct.cl_fmap, ptr %7, i32 0, i32 15
  %9 = load ptr, ptr %8, align 8
  %10 = load ptr, ptr %4, align 8
  %11 = load i64, ptr %5, align 8
  %12 = load i64, ptr %6, align 8
  %13 = call ptr %9(ptr noundef %10, i64 noundef %11, i64 noundef %12, i32 noundef 1)
  ret ptr %13
}

; Function Attrs: nounwind uwtable
define internal i32 @calculate_fuzzy_image_hash(ptr noundef %0, i32 noundef %1) #0 {
  %3 = alloca ptr, align 8
  %4 = alloca i32, align 4
  %5 = alloca i32, align 4
  %6 = alloca ptr, align 8
  %7 = alloca %struct.image_fuzzy_hash, align 1
  %8 = alloca ptr, align 8
  %9 = alloca ptr, align 8
  %10 = alloca [17 x i8], align 16
  store ptr %0, ptr %3, align 8
  store i32 %1, ptr %4, align 4
  store i32 27, ptr %5, align 4
  store ptr null, ptr %6, align 8
  call void @llvm.memset.p0.i64(ptr align 1 %7, i8 0, i64 8, i1 false)
  store ptr null, ptr %8, align 8
  store ptr null, ptr %9, align 8
  %11 = load ptr, ptr %3, align 8
  %12 = getelementptr inbounds %struct.cli_ctx_tag, ptr %11, i32 0, i32 14
  %13 = load ptr, ptr %12, align 8
  %14 = load ptr, ptr %3, align 8
  %15 = getelementptr inbounds %struct.cli_ctx_tag, ptr %14, i32 0, i32 14
  %16 = load ptr, ptr %15, align 8
  %17 = getelementptr inbounds %struct.cl_fmap, ptr %16, i32 0, i32 12
  %18 = load i64, ptr %17, align 8
  %19 = call ptr @fmap_need_off(ptr noundef %13, i64 noundef 0, i64 noundef %18)
  store ptr %19, ptr %6, align 8
  %20 = load ptr, ptr %3, align 8
  %21 = getelementptr inbounds %struct.cli_ctx_tag, ptr %20, i32 0, i32 8
  %22 = load ptr, ptr %21, align 8
  %23 = getelementptr inbounds %struct.cl_scan_options, ptr %22, i32 0, i32 0
  %24 = load i32, ptr %23, align 4
  %25 = and i32 %24, 2
  %26 = icmp ne i32 %25, 0
  br i1 %26, label %27, label %40

27:                                               ; preds = %2
  %28 = load ptr, ptr %3, align 8
  %29 = getelementptr inbounds %struct.cli_ctx_tag, ptr %28, i32 0, i32 21
  %30 = load ptr, ptr %29, align 8
  %31 = icmp ne ptr null, %30
  br i1 %31, label %32, label %40

32:                                               ; preds = %27
  %33 = load ptr, ptr %3, align 8
  %34 = getelementptr inbounds %struct.cli_ctx_tag, ptr %33, i32 0, i32 21
  %35 = load ptr, ptr %34, align 8
  %36 = call ptr @cli_jsonobj(ptr noundef %35, ptr noundef @.str.280)
  store ptr %36, ptr %8, align 8
  %37 = icmp eq ptr null, %36
  br i1 %37, label %38, label %39

38:                                               ; preds = %32
  call void (ptr, ...) @cli_errmsg(ptr noundef @.str.281)
  store i32 20, ptr %5, align 4
  br label %139

39:                                               ; preds = %32
  br label %40

40:                                               ; preds = %39, %27, %2
  %41 = load ptr, ptr %6, align 8
  %42 = load ptr, ptr %3, align 8
  %43 = getelementptr inbounds %struct.cli_ctx_tag, ptr %42, i32 0, i32 14
  %44 = load ptr, ptr %43, align 8
  %45 = getelementptr inbounds %struct.cl_fmap, ptr %44, i32 0, i32 12
  %46 = load i64, ptr %45, align 8
  %47 = getelementptr inbounds %struct.image_fuzzy_hash, ptr %7, i32 0, i32 0
  %48 = getelementptr inbounds [8 x i8], ptr %47, i64 0, i64 0
  %49 = call zeroext i1 @fuzzy_hash_calculate_image(ptr noundef %41, i64 noundef %46, ptr noundef %48, i64 noundef 8, ptr noundef %9)
  br i1 %49, label %71, label %50

50:                                               ; preds = %40
  %51 = load i32, ptr %4, align 4
  %52 = call ptr @cli_ftname(i32 noundef %51)
  %53 = load ptr, ptr %9, align 8
  %54 = call ptr @ffierror_fmt(ptr noundef %53)
  call void (ptr, ...) @cli_dbgmsg(ptr noundef @.str.282, ptr noundef %52, ptr noundef %54)
  %55 = load ptr, ptr %3, align 8
  %56 = getelementptr inbounds %struct.cli_ctx_tag, ptr %55, i32 0, i32 8
  %57 = load ptr, ptr %56, align 8
  %58 = getelementptr inbounds %struct.cl_scan_options, ptr %57, i32 0, i32 0
  %59 = load i32, ptr %58, align 4
  %60 = and i32 %59, 2
  %61 = icmp ne i32 %60, 0
  br i1 %61, label %62, label %70

62:                                               ; preds = %50
  %63 = load ptr, ptr %8, align 8
  %64 = icmp ne ptr null, %63
  br i1 %64, label %65, label %70

65:                                               ; preds = %62
  %66 = load ptr, ptr %8, align 8
  %67 = load ptr, ptr %9, align 8
  %68 = call ptr @ffierror_fmt(ptr noundef %67)
  %69 = call i32 @cli_jsonstr(ptr noundef %66, ptr noundef @.str.283, ptr noundef %68)
  br label %70

70:                                               ; preds = %65, %62, %50
  br label %139

71:                                               ; preds = %40
  %72 = load ptr, ptr %3, align 8
  %73 = getelementptr inbounds %struct.cli_ctx_tag, ptr %72, i32 0, i32 8
  %74 = load ptr, ptr %73, align 8
  %75 = getelementptr inbounds %struct.cl_scan_options, ptr %74, i32 0, i32 0
  %76 = load i32, ptr %75, align 4
  %77 = and i32 %76, 2
  %78 = icmp ne i32 %77, 0
  br i1 %78, label %79, label %120

79:                                               ; preds = %71
  %80 = load ptr, ptr %8, align 8
  %81 = icmp ne ptr null, %80
  br i1 %81, label %82, label %120

82:                                               ; preds = %79
  %83 = getelementptr inbounds [17 x i8], ptr %10, i64 0, i64 0
  %84 = getelementptr inbounds %struct.image_fuzzy_hash, ptr %7, i32 0, i32 0
  %85 = getelementptr inbounds [8 x i8], ptr %84, i64 0, i64 0
  %86 = load i8, ptr %85, align 1
  %87 = zext i8 %86 to i32
  %88 = getelementptr inbounds %struct.image_fuzzy_hash, ptr %7, i32 0, i32 0
  %89 = getelementptr inbounds [8 x i8], ptr %88, i64 0, i64 1
  %90 = load i8, ptr %89, align 1
  %91 = zext i8 %90 to i32
  %92 = getelementptr inbounds %struct.image_fuzzy_hash, ptr %7, i32 0, i32 0
  %93 = getelementptr inbounds [8 x i8], ptr %92, i64 0, i64 2
  %94 = load i8, ptr %93, align 1
  %95 = zext i8 %94 to i32
  %96 = getelementptr inbounds %struct.image_fuzzy_hash, ptr %7, i32 0, i32 0
  %97 = getelementptr inbounds [8 x i8], ptr %96, i64 0, i64 3
  %98 = load i8, ptr %97, align 1
  %99 = zext i8 %98 to i32
  %100 = getelementptr inbounds %struct.image_fuzzy_hash, ptr %7, i32 0, i32 0
  %101 = getelementptr inbounds [8 x i8], ptr %100, i64 0, i64 4
  %102 = load i8, ptr %101, align 1
  %103 = zext i8 %102 to i32
  %104 = getelementptr inbounds %struct.image_fuzzy_hash, ptr %7, i32 0, i32 0
  %105 = getelementptr inbounds [8 x i8], ptr %104, i64 0, i64 5
  %106 = load i8, ptr %105, align 1
  %107 = zext i8 %106 to i32
  %108 = getelementptr inbounds %struct.image_fuzzy_hash, ptr %7, i32 0, i32 0
  %109 = getelementptr inbounds [8 x i8], ptr %108, i64 0, i64 6
  %110 = load i8, ptr %109, align 1
  %111 = zext i8 %110 to i32
  %112 = getelementptr inbounds %struct.image_fuzzy_hash, ptr %7, i32 0, i32 0
  %113 = getelementptr inbounds [8 x i8], ptr %112, i64 0, i64 7
  %114 = load i8, ptr %113, align 1
  %115 = zext i8 %114 to i32
  %116 = call i32 (ptr, i64, ptr, ...) @snprintf(ptr noundef %83, i64 noundef 17, ptr noundef @.str.284, i32 noundef %87, i32 noundef %91, i32 noundef %95, i32 noundef %99, i32 noundef %103, i32 noundef %107, i32 noundef %111, i32 noundef %115) #11
  %117 = load ptr, ptr %8, align 8
  %118 = getelementptr inbounds [17 x i8], ptr %10, i64 0, i64 0
  %119 = call i32 @cli_jsonstr(ptr noundef %117, ptr noundef @.str.285, ptr noundef %118)
  br label %120

120:                                              ; preds = %82, %79, %71
  %121 = load ptr, ptr %3, align 8
  %122 = getelementptr inbounds %struct.cli_ctx_tag, ptr %121, i32 0, i32 11
  %123 = load ptr, ptr %122, align 8
  %124 = load ptr, ptr %3, align 8
  %125 = getelementptr inbounds %struct.cli_ctx_tag, ptr %124, i32 0, i32 13
  %126 = load i32, ptr %125, align 4
  %127 = zext i32 %126 to i64
  %128 = getelementptr inbounds %struct.recursion_level_tag, ptr %123, i64 %127
  %129 = getelementptr inbounds %struct.recursion_level_tag, ptr %128, i32 0, i32 6
  call void @llvm.memcpy.p0.p0.i64(ptr align 4 %129, ptr align 1 %7, i64 8, i1 false)
  %130 = load ptr, ptr %3, align 8
  %131 = getelementptr inbounds %struct.cli_ctx_tag, ptr %130, i32 0, i32 11
  %132 = load ptr, ptr %131, align 8
  %133 = load ptr, ptr %3, align 8
  %134 = getelementptr inbounds %struct.cli_ctx_tag, ptr %133, i32 0, i32 13
  %135 = load i32, ptr %134, align 4
  %136 = zext i32 %135 to i64
  %137 = getelementptr inbounds %struct.recursion_level_tag, ptr %132, i64 %136
  %138 = getelementptr inbounds %struct.recursion_level_tag, ptr %137, i32 0, i32 7
  store i8 1, ptr %138, align 4
  store i32 0, ptr %5, align 4
  br label %139

139:                                              ; preds = %120, %70, %38
  %140 = load ptr, ptr %9, align 8
  %141 = icmp ne ptr null, %140
  br i1 %141, label %142, label %144

142:                                              ; preds = %139
  %143 = load ptr, ptr %9, align 8
  call void @ffierror_free(ptr noundef %143)
  br label %144

144:                                              ; preds = %142, %139
  %145 = load i32, ptr %5, align 4
  ret i32 %145
}