; Function Attrs: nounwind uwtable
define internal fastcc void @calculate_fuzzy_image_hash(ptr noundef readonly captures(none) %0, i32 noundef %1) unnamed_addr #0 {
  %3 = alloca %struct.image_fuzzy_hash, align 8
  %4 = alloca ptr, align 8
  %5 = alloca [17 x i8], align 16
  store i64 0, ptr %3, align 8
  store ptr null, ptr %4, align 8
  %6 = getelementptr inbounds nuw i8, ptr %0, i64 96
  %7 = load ptr, ptr %6, align 8
  %8 = getelementptr inbounds nuw i8, ptr %7, i64 80
  %9 = load i64, ptr %8, align 8
  %10 = getelementptr inbounds nuw i8, ptr %7, i64 104
  %11 = load ptr, ptr %10, align 8
  %12 = tail call ptr %11(ptr noundef %7, i64 noundef 0, i64 noundef %9, i32 noundef 1) #16
  %13 = getelementptr inbounds nuw i8, ptr %0, i64 64
  %14 = load ptr, ptr %13, align 8
  %15 = load i32, ptr %14, align 4
  %16 = and i32 %15, 2
  %.not = icmp eq i32 %16, 0
  br i1 %.not, label %24, label %17

17:                                               ; preds = %2
  %18 = getelementptr inbounds nuw i8, ptr %0, i64 160
  %19 = load ptr, ptr %18, align 8
  %.not25 = icmp eq ptr %19, null
  br i1 %.not25, label %24, label %20

20:                                               ; preds = %17
  %21 = tail call ptr @cli_jsonobj(ptr noundef nonnull %19, ptr noundef nonnull @.str.280) #16
  %22 = icmp eq ptr %21, null
  br i1 %22, label %23, label %24

23:                                               ; preds = %20
  tail call void (ptr, ...) @cli_errmsg(ptr noundef nonnull @.str.281) #16
  br label %86

24:                                               ; preds = %20, %17, %2
  %.0 = phi ptr [ %21, %20 ], [ null, %17 ], [ null, %2 ]
  %25 = load ptr, ptr %6, align 8
  %26 = getelementptr inbounds nuw i8, ptr %25, i64 80
  %27 = load i64, ptr %26, align 8
  %28 = call zeroext i1 @fuzzy_hash_calculate_image(ptr noundef %12, i64 noundef %27, ptr noundef nonnull %3, i64 noundef 8, ptr noundef nonnull %4) #16
  br i1 %28, label %42, label %29

29:                                               ; preds = %24
  %30 = call ptr @cli_ftname(i32 noundef %1) #16
  %31 = load ptr, ptr %4, align 8
  %32 = call ptr @ffierror_fmt(ptr noundef %31) #16
  call void (ptr, ...) @cli_dbgmsg(ptr noundef nonnull @.str.282, ptr noundef %30, ptr noundef %32) #16
  %33 = load ptr, ptr %13, align 8
  %34 = load i32, ptr %33, align 4
  %35 = and i32 %34, 2
  %36 = icmp ne i32 %35, 0
  %37 = icmp ne ptr %.0, null
  %or.cond = and i1 %37, %36
  br i1 %or.cond, label %38, label %86

38:                                               ; preds = %29
  %39 = load ptr, ptr %4, align 8
  %40 = call ptr @ffierror_fmt(ptr noundef %39) #16
  %41 = call i32 @cli_jsonstr(ptr noundef nonnull %.0, ptr noundef nonnull @.str.283, ptr noundef %40) #16
  br label %86

42:                                               ; preds = %24
  %43 = load ptr, ptr %13, align 8
  %44 = load i32, ptr %43, align 4
  %45 = and i32 %44, 2
  %46 = icmp ne i32 %45, 0
  %47 = icmp ne ptr %.0, null
  %or.cond3 = and i1 %47, %46
  br i1 %or.cond3, label %48, label %74

48:                                               ; preds = %42
  %49 = load i8, ptr %3, align 8
  %50 = zext i8 %49 to i32
  %51 = getelementptr inbounds nuw i8, ptr %3, i64 1
  %52 = load i8, ptr %51, align 1
  %53 = zext i8 %52 to i32
  %54 = getelementptr inbounds nuw i8, ptr %3, i64 2
  %55 = load i8, ptr %54, align 2
  %56 = zext i8 %55 to i32
  %57 = getelementptr inbounds nuw i8, ptr %3, i64 3
  %58 = load i8, ptr %57, align 1
  %59 = zext i8 %58 to i32
  %60 = getelementptr inbounds nuw i8, ptr %3, i64 4
  %61 = load i8, ptr %60, align 4
  %62 = zext i8 %61 to i32
  %63 = getelementptr inbounds nuw i8, ptr %3, i64 5
  %64 = load i8, ptr %63, align 1
  %65 = zext i8 %64 to i32
  %66 = getelementptr inbounds nuw i8, ptr %3, i64 6
  %67 = load i8, ptr %66, align 2
  %68 = zext i8 %67 to i32
  %69 = getelementptr inbounds nuw i8, ptr %3, i64 7
  %70 = load i8, ptr %69, align 1
  %71 = zext i8 %70 to i32
  %72 = call i32 (ptr, i64, ptr, ...) @snprintf(ptr noundef nonnull dereferenceable(1) %5, i64 noundef 17, ptr noundef nonnull @.str.284, i32 noundef %50, i32 noundef %53, i32 noundef %56, i32 noundef %59, i32 noundef %62, i32 noundef %65, i32 noundef %68, i32 noundef %71) #16
  %73 = call i32 @cli_jsonstr(ptr noundef nonnull %.0, ptr noundef nonnull @.str.285, ptr noundef nonnull %5) #16
  br label %74

74:                                               ; preds = %48, %42
  %75 = getelementptr inbounds nuw i8, ptr %0, i64 80
  %76 = load ptr, ptr %75, align 8
  %77 = getelementptr inbounds nuw i8, ptr %0, i64 92
  %78 = load i32, ptr %77, align 4
  %79 = zext i32 %78 to i64
  %80 = getelementptr inbounds nuw %struct.recursion_level_tag, ptr %76, i64 %79, i32 6
  %81 = load i64, ptr %3, align 8
  store i64 %81, ptr %80, align 4
  %82 = load ptr, ptr %75, align 8
  %83 = load i32, ptr %77, align 4
  %84 = zext i32 %83 to i64
  %85 = getelementptr inbounds nuw %struct.recursion_level_tag, ptr %82, i64 %84, i32 7
  store i8 1, ptr %85, align 4
  br label %86

86:                                               ; preds = %29, %38, %74, %23
  %87 = load ptr, ptr %4, align 8
  %.not26 = icmp eq ptr %87, null
  br i1 %.not26, label %89, label %88

88:                                               ; preds = %86
  call void @ffierror_free(ptr noundef nonnull %87) #16
  br label %89

89:                                               ; preds = %88, %86
  ret void
}